target datalayout = "e-m:e-p270:32:32-p271:32:32-p272:64:64-i64:64-i128:128-f80:128-n8:16:32:64-S128"
target triple = "x86_64-unknown-linux-gnu"

%"class.node::MemoryRetainer" = type { ptr }
%"class.node::ReqWrap" = type { %"class.node::AsyncWrap", %"class.node::ReqWrapBase", ptr, %struct.uv_fs_s }
%"class.node::AsyncWrap" = type { %"class.node::BaseObject", i32, i8, double, double }
%"class.node::BaseObject" = type { %"class.node::MemoryRetainer", %"class.v8::Global", ptr, ptr }
%"class.v8::Global" = type { %"class.v8::PersistentBase" }
%"class.v8::PersistentBase" = type { %"class.v8::IndirectHandleBase" }
%"class.v8::IndirectHandleBase" = type { ptr }
%"class.node::ReqWrapBase" = type { ptr, %"class.node::ListNode" }
%"class.node::ListNode" = type { ptr, ptr }
%struct.uv_fs_s = type { ptr, i32, [6 x ptr], i32, ptr, ptr, i64, ptr, ptr, %struct.uv_stat_t, ptr, i32, i32, i32, i32, ptr, i64, i32, i32, double, double, %struct.uv__work, [4 x %struct.uv_buf_t] }
%struct.uv_stat_t = type { i64, i64, i64, i64, i64, i64, i64, i64, i64, i64, i64, i64, %struct.uv_timespec_t, %struct.uv_timespec_t, %struct.uv_timespec_t, %struct.uv_timespec_t }
%struct.uv_timespec_t = type { i64, i64 }
%struct.uv__work = type { ptr, ptr, ptr, %struct.uv__queue }
%struct.uv__queue = type { ptr, ptr }
%struct.uv_buf_t = type { ptr, i64 }
%"class.node::fs::FileHandle::CloseReq" = type { %"class.node::ReqWrap", %"class.v8::Global.340", %"class.v8::Global.342" }
%"class.v8::Global.340" = type { %"class.v8::PersistentBase.341" }
%"class.v8::PersistentBase.341" = type { %"class.v8::IndirectHandleBase" }
%"class.v8::Global.342" = type { %"class.v8::PersistentBase.343" }
%"class.v8::PersistentBase.343" = type { %"class.v8::IndirectHandleBase" }

@_ZTVN4node11ReqWrapBaseE = linkonce_odr dso_local unnamed_addr constant { [6 x ptr] } { [6 x ptr] [ptr null, ptr null, ptr @_ZN4node11ReqWrapBaseD2Ev, ptr @_ZN4node11ReqWrapBaseD0Ev, ptr @__cxa_pure_virtual, ptr @__cxa_pure_virtual] }, comdat, align 8

; Function Attrs: mustprogress nounwind uwtable
define linkonce_odr dso_local void @_ZN4node8ListNodeINS_11ReqWrapBaseEE6RemoveEv(ptr noundef nonnull align 8 dereferenceable(16) %this) #4 comdat align 2 {
entry:
  %this.addr = alloca ptr, align 8
  store ptr %this, ptr %this.addr, align 8
  %this1 = load ptr, ptr %this.addr, align 8
  %next_ = getelementptr inbounds %"class.node::ListNode", ptr %this1, i32 0, i32 1
  %0 = load ptr, ptr %next_, align 8
  %prev_ = getelementptr inbounds %"class.node::ListNode", ptr %this1, i32 0, i32 0
  %1 = load ptr, ptr %prev_, align 8
  %next_2 = getelementptr inbounds %"class.node::ListNode", ptr %1, i32 0, i32 1
  store ptr %0, ptr %next_2, align 8
  %prev_3 = getelementptr inbounds %"class.node::ListNode", ptr %this1, i32 0, i32 0
  %2 = load ptr, ptr %prev_3, align 8
  %next_4 = getelementptr inbounds %"class.node::ListNode", ptr %this1, i32 0, i32 1
  %3 = load ptr, ptr %next_4, align 8
  %prev_5 = getelementptr inbounds %"class.node::ListNode", ptr %3, i32 0, i32 0
  store ptr %2, ptr %prev_5, align 8
  %prev_6 = getelementptr inbounds %"class.node::ListNode", ptr %this1, i32 0, i32 0
  store ptr %this1, ptr %prev_6, align 8
  %next_7 = getelementptr inbounds %"class.node::ListNode", ptr %this1, i32 0, i32 1
  store ptr %this1, ptr %next_7, align 8
  ret void
}

; Function Attrs: mustprogress nounwind uwtable
define linkonce_odr dso_local void @_ZN4node8ListNodeINS_11ReqWrapBaseEED2Ev(ptr noundef nonnull align 8 dereferenceable(16) %this) unnamed_addr #4 comdat align 2 {
entry:
  %this.addr = alloca ptr, align 8
  store ptr %this, ptr %this.addr, align 8
  %this1 = load ptr, ptr %this.addr, align 8
  call void @_ZN4node8ListNodeINS_11ReqWrapBaseEE6RemoveEv(ptr noundef nonnull align 8 dereferenceable(16) %this1)
  ret void
}

; Function Attrs: mustprogress nounwind uwtable
define linkonce_odr dso_local void @_ZN4node11ReqWrapBaseD2Ev(ptr noundef nonnull align 8 dereferenceable(24) %this) unnamed_addr #4 comdat align 2 {
entry:
  %this.addr = alloca ptr, align 8
  store ptr %this, ptr %this.addr, align 8
  %this1 = load ptr, ptr %this.addr, align 8
  store ptr getelementptr inbounds ({ [6 x ptr] }, ptr @_ZTVN4node11ReqWrapBaseE, i32 0, i32 0, i32 2), ptr %this1, align 8
  %req_wrap_queue_ = getelementptr inbounds %"class.node::ReqWrapBase", ptr %this1, i32 0, i32 1
  call void @_ZN4node8ListNodeINS_11ReqWrapBaseEED2Ev(ptr noundef nonnull align 8 dereferenceable(16) %req_wrap_queue_) #3
  ret void
}

; Function Attrs: mustprogress nounwind uwtable
define linkonce_odr dso_local void @_ZN4node7ReqWrapI7uv_fs_sED2Ev(ptr noundef nonnull align 8 dereferenceable(528) %this) unnamed_addr #4 comdat align 2 {
entry:
  %this.addr = alloca ptr, align 8
  store ptr %this, ptr %this.addr, align 8
  %this1 = load ptr, ptr %this.addr, align 8
  %0 = getelementptr inbounds i8, ptr %this1, i64 56
  call void @_ZN4node11ReqWrapBaseD2Ev(ptr noundef nonnull align 8 dereferenceable(24) %0) #3
  call void @_ZN4node9AsyncWrapD2Ev(ptr noundef nonnull align 8 dereferenceable(56) %this1) #3
  ret void
}

; Function Attrs: mustprogress nounwind uwtable
define linkonce_odr dso_local noundef ptr @_ZN4node7ReqWrapI7uv_fs_sE3reqEv(ptr noundef nonnull align 8 dereferenceable(528) %this) #4 comdat align 2 {
entry:
  %this.addr = alloca ptr, align 8
  store ptr %this, ptr %this.addr, align 8
  %this1 = load ptr, ptr %this.addr, align 8
  %req_ = getelementptr inbounds %"class.node::ReqWrap", ptr %this1, i32 0, i32 3
  ret ptr %req_
}

; Function Attrs: mustprogress nounwind uwtable
define dso_local void @_ZN4node2fs10FileHandle8CloseReqD2Ev(ptr noundef nonnull align 8 dereferenceable(544) %this) unnamed_addr #4 align 2 {
entry:
  %this.addr.i40 = alloca ptr, align 8
  %this.addr.i38 = alloca ptr, align 8
  %this.addr.i36 = alloca ptr, align 8
  %this.addr.i34 = alloca ptr, align 8
  %this.addr.i32 = alloca ptr, align 8
  %this.addr.i30 = alloca ptr, align 8
  %this.addr.i28 = alloca ptr, align 8
  %this.addr.i26 = alloca ptr, align 8
  %this.addr.i.i.i16 = alloca ptr, align 8
  %this.addr.i.i17 = alloca ptr, align 8
  %this.addr.i18 = alloca ptr, align 8
  %this.addr.i.i.i = alloca ptr, align 8
  %this.addr.i.i12 = alloca ptr, align 8
  %this.addr.i13 = alloca ptr, align 8
  %this.addr.i.i4 = alloca ptr, align 8
  %this.addr.i5 = alloca ptr, align 8
  %this.addr.i.i = alloca ptr, align 8
  %this.addr.i = alloca ptr, align 8
  %this.addr = alloca ptr, align 8
  store ptr %this, ptr %this.addr, align 8
  %this1 = load ptr, ptr %this.addr, align 8
  %call = call noundef ptr @_ZN4node7ReqWrapI7uv_fs_sE3reqEv(ptr noundef nonnull align 8 dereferenceable(528) %this1)
  call void @uv_fs_req_cleanup(ptr noundef %call)
  %promise_ = getelementptr inbounds %"class.node::fs::FileHandle::CloseReq", ptr %this1, i32 0, i32 1
  store ptr %promise_, ptr %this.addr.i, align 8
  %this1.i = load ptr, ptr %this.addr.i, align 8
  store ptr %this1.i, ptr %this.addr.i.i, align 8
  %this1.i.i = load ptr, ptr %this.addr.i.i, align 8
  %0 = load ptr, ptr %this1.i.i, align 8
  %cmp.i.i = icmp eq ptr %0, null
  br i1 %cmp.i.i, label %if.then.i, label %if.end.i

if.then.i:                                        ; preds = %entry
  br label %_ZN2v814PersistentBaseINS_7PromiseEE5ResetEv.exit

if.end.i:                                         ; preds = %entry
  store ptr %this1.i, ptr %this.addr.i32, align 8
  %this1.i33 = load ptr, ptr %this.addr.i32, align 8
  %1 = load ptr, ptr %this1.i33, align 8
  call void @_ZN2v812api_internal13DisposeGlobalEPm(ptr noundef %1) #3
  store ptr %this1.i, ptr %this.addr.i40, align 8
  %this1.i41 = load ptr, ptr %this.addr.i40, align 8
  store ptr null, ptr %this1.i41, align 8
  br label %_ZN2v814PersistentBaseINS_7PromiseEE5ResetEv.exit

_ZN2v814PersistentBaseINS_7PromiseEE5ResetEv.exit: ; preds = %if.end.i, %if.then.i
  %ref_ = getelementptr inbounds %"class.node::fs::FileHandle::CloseReq", ptr %this1, i32 0, i32 2
  store ptr %ref_, ptr %this.addr.i5, align 8
  %this1.i6 = load ptr, ptr %this.addr.i5, align 8
  store ptr %this1.i6, ptr %this.addr.i.i4, align 8
  %this1.i.i7 = load ptr, ptr %this.addr.i.i4, align 8
  %2 = load ptr, ptr %this1.i.i7, align 8
  %cmp.i.i8 = icmp eq ptr %2, null
  br i1 %cmp.i.i8, label %if.then.i11, label %if.end.i9

if.then.i11:                                      ; preds = %_ZN2v814PersistentBaseINS_7PromiseEE5ResetEv.exit
  br label %_ZN2v814PersistentBaseINS_5ValueEE5ResetEv.exit

if.end.i9:                                        ; preds = %_ZN2v814PersistentBaseINS_7PromiseEE5ResetEv.exit
  store ptr %this1.i6, ptr %this.addr.i30, align 8
  %this1.i31 = load ptr, ptr %this.addr.i30, align 8
  %3 = load ptr, ptr %this1.i31, align 8
  call void @_ZN2v812api_internal13DisposeGlobalEPm(ptr noundef %3) #3
  store ptr %this1.i6, ptr %this.addr.i38, align 8
  %this1.i39 = load ptr, ptr %this.addr.i38, align 8
  store ptr null, ptr %this1.i39, align 8
  br label %_ZN2v814PersistentBaseINS_5ValueEE5ResetEv.exit

_ZN2v814PersistentBaseINS_5ValueEE5ResetEv.exit:  ; preds = %if.end.i9, %if.then.i11
  %ref_2 = getelementptr inbounds %"class.node::fs::FileHandle::CloseReq", ptr %this1, i32 0, i32 2
  store ptr %ref_2, ptr %this.addr.i13, align 8
  %this1.i14 = load ptr, ptr %this.addr.i13, align 8
  store ptr %this1.i14, ptr %this.addr.i.i12, align 8
  %this1.i.i15 = load ptr, ptr %this.addr.i.i12, align 8
  store ptr %this1.i.i15, ptr %this.addr.i.i.i, align 8
  %this1.i.i.i = load ptr, ptr %this.addr.i.i.i, align 8
  %4 = load ptr, ptr %this1.i.i.i, align 8
  %cmp.i.i.i = icmp eq ptr %4, null
  br i1 %cmp.i.i.i, label %if.then.i.i, label %if.end.i.i

if.then.i.i:                                      ; preds = %_ZN2v814PersistentBaseINS_5ValueEE5ResetEv.exit
  br label %_ZN2v86GlobalINS_5ValueEED2Ev.exit

if.end.i.i:                                       ; preds = %_ZN2v814PersistentBaseINS_5ValueEE5ResetEv.exit
  store ptr %this1.i.i15, ptr %this.addr.i28, align 8
  %this1.i29 = load ptr, ptr %this.addr.i28, align 8
  %5 = load ptr, ptr %this1.i29, align 8
  call void @_ZN2v812api_internal13DisposeGlobalEPm(ptr noundef %5) #3
  store ptr %this1.i.i15, ptr %this.addr.i36, align 8
  %this1.i37 = load ptr, ptr %this.addr.i36, align 8
  store ptr null, ptr %this1.i37, align 8
  br label %_ZN2v86GlobalINS_5ValueEED2Ev.exit

_ZN2v86GlobalINS_5ValueEED2Ev.exit:               ; preds = %if.end.i.i, %if.then.i.i
  %promise_3 = getelementptr inbounds %"class.node::fs::FileHandle::CloseReq", ptr %this1, i32 0, i32 1
  store ptr %promise_3, ptr %this.addr.i18, align 8
  %this1.i19 = load ptr, ptr %this.addr.i18, align 8
  store ptr %this1.i19, ptr %this.addr.i.i17, align 8
  %this1.i.i20 = load ptr, ptr %this.addr.i.i17, align 8
  store ptr %this1.i.i20, ptr %this.addr.i.i.i16, align 8
  %this1.i.i.i21 = load ptr, ptr %this.addr.i.i.i16, align 8
  %6 = load ptr, ptr %this1.i.i.i21, align 8
  %cmp.i.i.i22 = icmp eq ptr %6, null
  br i1 %cmp.i.i.i22, label %if.then.i.i25, label %if.end.i.i23

if.then.i.i25:                                    ; preds = %_ZN2v86GlobalINS_5ValueEED2Ev.exit
  br label %_ZN2v86GlobalINS_7PromiseEED2Ev.exit

if.end.i.i23:                                     ; preds = %_ZN2v86GlobalINS_5ValueEED2Ev.exit
  store ptr %this1.i.i20, ptr %this.addr.i26, align 8
  %this1.i27 = load ptr, ptr %this.addr.i26, align 8
  %7 = load ptr, ptr %this1.i27, align 8
  call void @_ZN2v812api_internal13DisposeGlobalEPm(ptr noundef %7) #3
  store ptr %this1.i.i20, ptr %this.addr.i34, align 8
  %this1.i35 = load ptr, ptr %this.addr.i34, align 8
  store ptr null, ptr %this1.i35, align 8
  br label %_ZN2v86GlobalINS_7PromiseEED2Ev.exit

_ZN2v86GlobalINS_7PromiseEED2Ev.exit:             ; preds = %if.end.i.i23, %if.then.i.i25
  call void @_ZN4node7ReqWrapI7uv_fs_sED2Ev(ptr noundef nonnull align 8 dereferenceable(528) %this1) #3
  ret void
}