; Function Attrs: mustprogress nounwind uwtable
define dso_local void @_ZN4node2fs10FileHandle8CloseReqD2Ev(ptr noundef nonnull align 8 dereferenceable(544) %this) unnamed_addr #3 align 2 {
entry:
  %req_.i = getelementptr inbounds i8, ptr %this, i64 88
  tail call void @uv_fs_req_cleanup(ptr noundef nonnull %req_.i) #30
  %promise_ = getelementptr inbounds i8, ptr %this, i64 528
  %0 = load ptr, ptr %promise_, align 8
  %cmp.i.i = icmp eq ptr %0, null
  br i1 %cmp.i.i, label %_ZN2v814PersistentBaseINS_7PromiseEE5ResetEv.exit, label %if.end.i

if.end.i:                                         ; preds = %entry
  tail call void @_ZN2v812api_internal13DisposeGlobalEPm(ptr noundef nonnull %0) #30
  store ptr null, ptr %promise_, align 8
  br label %_ZN2v814PersistentBaseINS_7PromiseEE5ResetEv.exit

_ZN2v814PersistentBaseINS_7PromiseEE5ResetEv.exit: ; preds = %entry, %if.end.i
  %ref_ = getelementptr inbounds i8, ptr %this, i64 536
  %1 = load ptr, ptr %ref_, align 8
  %cmp.i.i8 = icmp eq ptr %1, null
  br i1 %cmp.i.i8, label %_ZN2v86GlobalINS_7PromiseEED2Ev.exit, label %_ZN2v86GlobalINS_5ValueEED2Ev.exit

_ZN2v86GlobalINS_5ValueEED2Ev.exit:               ; preds = %_ZN2v814PersistentBaseINS_7PromiseEE5ResetEv.exit
  tail call void @_ZN2v812api_internal13DisposeGlobalEPm(ptr noundef nonnull %1) #30
  store ptr null, ptr %ref_, align 8
  %.pre = load ptr, ptr %promise_, align 8
  %cmp.i.i.i22 = icmp eq ptr %.pre, null
  br i1 %cmp.i.i.i22, label %_ZN2v86GlobalINS_7PromiseEED2Ev.exit, label %if.end.i.i23

if.end.i.i23:                                     ; preds = %_ZN2v86GlobalINS_5ValueEED2Ev.exit
  tail call void @_ZN2v812api_internal13DisposeGlobalEPm(ptr noundef nonnull %.pre) #30
  store ptr null, ptr %promise_, align 8
  br label %_ZN2v86GlobalINS_7PromiseEED2Ev.exit

_ZN2v86GlobalINS_7PromiseEED2Ev.exit:             ; preds = %_ZN2v814PersistentBaseINS_7PromiseEE5ResetEv.exit, %_ZN2v86GlobalINS_5ValueEED2Ev.exit, %if.end.i.i23
  %2 = getelementptr inbounds i8, ptr %this, i64 56
  store ptr getelementptr inbounds ({ [6 x ptr] }, ptr @_ZTVN4node11ReqWrapBaseE, i64 0, i32 0, i64 2), ptr %2, align 8
  %req_wrap_queue_.i.i = getelementptr inbounds i8, ptr %this, i64 64
  %next_.i.i.i.i = getelementptr inbounds i8, ptr %this, i64 72
  %3 = load ptr, ptr %next_.i.i.i.i, align 8
  %4 = load ptr, ptr %req_wrap_queue_.i.i, align 8
  %next_2.i.i.i.i = getelementptr inbounds i8, ptr %4, i64 8
  store ptr %3, ptr %next_2.i.i.i.i, align 8
  %5 = load ptr, ptr %req_wrap_queue_.i.i, align 8
  store ptr %5, ptr %3, align 8
  store ptr %req_wrap_queue_.i.i, ptr %req_wrap_queue_.i.i, align 8
  store ptr %req_wrap_queue_.i.i, ptr %next_.i.i.i.i, align 8
  tail call void @_ZN4node9AsyncWrapD2Ev(ptr noundef nonnull align 8 dereferenceable(56) %this) #30
  ret void
}